(dp0
Vengine
p1
S'pdflatex'
p2
sVpackages
p3
c__builtin__
set
p4
((lp5
Vforest
p6
atp7
Rp8
sVfiles_with_guttermarks
p9
g4
((lp10
V/usr/local/texlive/2015/texmf-dist/tex/latex/forest/forest.sty
p11
aV/Users/agentxyz/Box Sync/stat385sp17/lectures/lec2/img/tikz/./directory_structure.tex
p12
aS'directory_structure.tex'
p13
atp14
Rp15
sVsynctex
p16
I01
s.